target datalayout = "e-m:e-p270:32:32-p271:32:32-p272:64:64-i64:64-i128:128-f80:128-n8:16:32:64-S128"
target triple = "x86_64-pc-linux-gnu"

%struct.AddressSpace = type { %struct.rcu_head, ptr, ptr, ptr, i32, i32, ptr, %union.anon, %union.anon.0, i64, i64, %struct.QemuMutex, %struct.anon }
%struct.rcu_head = type { ptr, ptr }
%union.anon = type { %struct.QTailQLink }
%struct.QTailQLink = type { ptr, ptr }
%union.anon.0 = type { %struct.QTailQLink }
%struct.QemuMutex = type { %union.pthread_mutex_t, i8 }
%union.pthread_mutex_t = type { %struct.__pthread_mutex_s }
%struct.__pthread_mutex_s = type { i32, i32, i32, i32, i32, i16, i16, %struct.__pthread_internal_list }
%struct.__pthread_internal_list = type { ptr, ptr }
%struct.anon = type { ptr }
%struct.VirtIOPCIProxy = type { %struct.PCIDevice, %struct.MemoryRegion, %union.anon.7, %struct.MemoryRegion, %struct.MemoryRegion, %struct.AddressSpace, %struct.AddressSpace, i32, i32, i32, i32, i32, i32, i8, i8, i32, i16, i32, i32, i32, i32, [2 x i32], [1024 x %struct.VirtIOPCIQueue], ptr, i32, %struct.VirtioBusState }
%struct.PCIDevice = type { %struct.DeviceState, i8, i8, ptr, ptr, ptr, ptr, ptr, i32, %struct.PCIReqIDCache, [64 x i8], [7 x %struct.PCIIORegion], %struct.AddressSpace, %struct.MemoryRegion, %struct.MemoryRegion, ptr, ptr, [3 x ptr], i8, i8, i32, i8, i32, ptr, ptr, ptr, ptr, ptr, ptr, %struct.MemoryRegion, %struct.MemoryRegion, %struct.MemoryRegion, ptr, i8, i32, i8, %struct.PCIExpressDevice, ptr, ptr, i32, i8, %struct.MemoryRegion, i32, ptr, ptr, ptr, ptr, i16, %struct.DOECap, ptr, i32, i32 }
%struct.DeviceState = type { %struct.Object, ptr, ptr, i8, i8, i64, i32, i8, ptr, %struct.NamedGPIOListHead, %struct.NamedClockListHead, %struct.BusStateHead, i32, i32, i32, %struct.ResettableState, ptr, %struct.MemReentrancyGuard }
%struct.Object = type { ptr, ptr, ptr, i32, ptr }
%struct.NamedGPIOListHead = type { ptr }
%struct.NamedClockListHead = type { ptr }
%struct.BusStateHead = type { ptr }
%struct.ResettableState = type { i32, i8, i8 }
%struct.MemReentrancyGuard = type { i8 }
%struct.PCIReqIDCache = type { ptr, i32 }
%struct.PCIIORegion = type { i64, i64, i8, ptr, ptr }
%struct.PCIExpressDevice = type { i8, i8, i8, i16, %struct.PCIEAERLog, i16, i16, i16, %struct.PCIESriovPF, %struct.PCIESriovVF }
%struct.PCIEAERLog = type { i16, i16, ptr }
%struct.PCIESriovPF = type { i16, [7 x i8], ptr, ptr }
%struct.PCIESriovVF = type { ptr, i16 }
%struct.DOECap = type { ptr, i16, %struct.anon.4, %struct.anon.5, %struct.anon.6, ptr, ptr, i32, i32, i32, ptr, i16, i32 }
%struct.anon.4 = type { i8, i16 }
%struct.anon.5 = type { i8, i8, i8 }
%struct.anon.6 = type { i8, i8, i8, i8 }
%union.anon.7 = type { %struct.anon.8 }
%struct.anon.8 = type { %struct.VirtIOPCIRegion, %struct.VirtIOPCIRegion, %struct.VirtIOPCIRegion, %struct.VirtIOPCIRegion, %struct.VirtIOPCIRegion }
%struct.VirtIOPCIRegion = type { %struct.MemoryRegion, i32, i32, i32 }
%struct.MemoryRegion = type { %struct.Object, i8, i8, i8, i8, i8, i8, i8, i8, i8, i8, ptr, ptr, ptr, ptr, ptr, ptr, i32, i128, i64, ptr, i64, i8, i8, i8, i8, ptr, i64, i32, %union.anon.1, %union.anon.2, %union.anon.3, ptr, i32, ptr, ptr, i8 }
%union.anon.1 = type { %struct.QTailQLink }
%union.anon.2 = type { %struct.QTailQLink }
%union.anon.3 = type { %struct.QTailQLink }
%struct.VirtIOPCIQueue = type { i16, i8, i8, [2 x i32], [2 x i32], [2 x i32] }
%struct.VirtioBusState = type { %struct.BusState, i8, i32 }
%struct.BusState = type { %struct.Object, ptr, ptr, ptr, i32, i8, i8, i32, %union.BusChildHead, %struct.BusStateEntry, %struct.ResettableState }
%union.BusChildHead = type { %struct.QTailQLink }
%struct.BusStateEntry = type { ptr, ptr }

; Function Attrs: inlinehint nounwind sspstrong uwtable
define internal i32 @virtio_pci_queue_mem_mult(ptr noundef %0) #4 {
  %2 = alloca ptr, align 8
  store ptr %0, ptr %2, align 8
  %3 = load ptr, ptr %2, align 8
  %4 = getelementptr inbounds nuw %struct.VirtIOPCIProxy, ptr %3, i32 0, i32 12
  %5 = load i32, ptr %4, align 4
  %6 = and i32 %5, 32
  %7 = icmp ne i32 %6, 0
  %8 = select i1 %7, i32 4096, i32 4
  ret i32 %8
}

; Function Attrs: inlinehint nounwind sspstrong uwtable
define internal zeroext i1 @virtio_pci_modern(ptr noundef %0) #4 {
  %2 = alloca ptr, align 8
  store ptr %0, ptr %2, align 8
  %3 = load ptr, ptr %2, align 8
  %4 = getelementptr inbounds nuw %struct.VirtIOPCIProxy, ptr %3, i32 0, i32 13
  %5 = load i8, ptr %4, align 8, !range !7, !noundef !8
  %6 = trunc i8 %5 to i1
  %7 = xor i1 %6, true
  ret i1 %7
}

; Function Attrs: inlinehint nounwind sspstrong uwtable
define internal ptr @to_virtio_pci_proxy(ptr noundef %0) #4 {
  %2 = alloca ptr, align 8
  %3 = alloca ptr, align 8
  %4 = alloca ptr, align 8
  store ptr %0, ptr %2, align 8
  call void @llvm.lifetime.start.p0(i64 8, ptr %3) #13
  %5 = load ptr, ptr %2, align 8
  store ptr %5, ptr %3, align 8
  %6 = load ptr, ptr %3, align 8
  %7 = getelementptr inbounds i8, ptr %6, i64 0
  store ptr %7, ptr %4, align 8
  call void @llvm.lifetime.end.p0(i64 8, ptr %3) #13
  %8 = load ptr, ptr %4, align 8
  ret ptr %8
}

; Function Attrs: nounwind sspstrong uwtable
define internal i32 @virtio_pci_set_host_notifier_mr(ptr noundef %0, i32 noundef %1, ptr noundef %2, i1 noundef zeroext %3) #0 {
  %5 = alloca i32, align 4
  %6 = alloca ptr, align 8
  %7 = alloca i32, align 4
  %8 = alloca ptr, align 8
  %9 = alloca i8, align 1
  %10 = alloca ptr, align 8
  %11 = alloca i32, align 4
  %12 = alloca i32, align 4
  store ptr %0, ptr %6, align 8
  store i32 %1, ptr %7, align 4
  store ptr %2, ptr %8, align 8
  %13 = zext i1 %3 to i8
  store i8 %13, ptr %9, align 1
  call void @llvm.lifetime.start.p0(i64 8, ptr %10) #13
  %14 = load ptr, ptr %6, align 8
  %15 = call ptr @to_virtio_pci_proxy(ptr noundef %14)
  store ptr %15, ptr %10, align 8
  call void @llvm.lifetime.start.p0(i64 4, ptr %11) #13
  store i32 0, ptr %11, align 4, !annotation !4
  %16 = load i32, ptr %7, align 4
  %17 = icmp sge i32 %16, 1024
  br i1 %17, label %28, label %18

18:                                               ; preds = %4
  %19 = load ptr, ptr %10, align 8
  %20 = call zeroext i1 @virtio_pci_modern(ptr noundef %19)
  br i1 %20, label %21, label %28

21:                                               ; preds = %18
  %22 = load ptr, ptr %10, align 8
  %23 = call i32 @virtio_pci_queue_mem_mult(ptr noundef %22)
  %24 = sext i32 %23 to i64
  %25 = load ptr, ptr %8, align 8
  %26 = call i64 @memory_region_size(ptr noundef %25)
  %27 = icmp ne i64 %24, %26
  br i1 %27, label %28, label %29

28:                                               ; preds = %21, %18, %4
  store i32 -1, ptr %5, align 4
  store i32 1, ptr %12, align 4
  br label %51

29:                                               ; preds = %21
  %30 = load i8, ptr %9, align 1, !range !7, !noundef !8
  %31 = trunc i8 %30 to i1
  br i1 %31, label %32, label %44

32:                                               ; preds = %29
  %33 = load ptr, ptr %10, align 8
  %34 = call i32 @virtio_pci_queue_mem_mult(ptr noundef %33)
  %35 = load i32, ptr %7, align 4
  %36 = mul i32 %34, %35
  store i32 %36, ptr %11, align 4
  %37 = load ptr, ptr %10, align 8
  %38 = getelementptr inbounds nuw %struct.VirtIOPCIProxy, ptr %37, i32 0, i32 2
  %39 = getelementptr inbounds nuw %struct.anon.8, ptr %38, i32 0, i32 3
  %40 = getelementptr inbounds nuw %struct.VirtIOPCIRegion, ptr %39, i32 0, i32 0
  %41 = load i32, ptr %11, align 4
  %42 = sext i32 %41 to i64
  %43 = load ptr, ptr %8, align 8
  call void @memory_region_add_subregion_overlap(ptr noundef %40, i64 noundef %42, ptr noundef %43, i32 noundef 1)
  br label %50

44:                                               ; preds = %29
  %45 = load ptr, ptr %10, align 8
  %46 = getelementptr inbounds nuw %struct.VirtIOPCIProxy, ptr %45, i32 0, i32 2
  %47 = getelementptr inbounds nuw %struct.anon.8, ptr %46, i32 0, i32 3
  %48 = getelementptr inbounds nuw %struct.VirtIOPCIRegion, ptr %47, i32 0, i32 0
  %49 = load ptr, ptr %8, align 8
  call void @memory_region_del_subregion(ptr noundef %48, ptr noundef %49)
  br label %50

50:                                               ; preds = %44, %32
  store i32 0, ptr %5, align 4
  store i32 1, ptr %12, align 4
  br label %51

51:                                               ; preds = %50, %28
  call void @llvm.lifetime.end.p0(i64 4, ptr %11) #13
  call void @llvm.lifetime.end.p0(i64 8, ptr %10) #13
  %52 = load i32, ptr %5, align 4
  ret i32 %52
}