; Function Attrs: nounwind sspstrong uwtable
define internal range(i32 -1, 1) i32 @virtio_pci_set_host_notifier_mr(ptr noundef %0, i32 noundef %1, ptr noundef %2, i1 noundef zeroext %3) #0 {
  %5 = icmp sgt i32 %1, 1023
  br i1 %5, label %23, label %6

6:                                                ; preds = %4
  %7 = getelementptr i8, ptr %0, i64 5352
  %.val = load i8, ptr %7, align 8, !range !7, !noundef !6
  %8 = trunc nuw i8 %.val to i1
  br i1 %8, label %23, label %9

9:                                                ; preds = %6
  %10 = getelementptr i8, ptr %0, i64 5348
  %.val14 = load i32, ptr %10, align 4
  %11 = and i32 %.val14, 32
  %.not.i = icmp eq i32 %11, 0
  %12 = select i1 %.not.i, i64 4, i64 4096
  %13 = tail call i64 @memory_region_size(ptr noundef %2) #15
  %.not = icmp eq i64 %13, %12
  br i1 %.not, label %14, label %23

14:                                               ; preds = %9
  br i1 %3, label %15, label %21

15:                                               ; preds = %14
  %.val15 = load i32, ptr %10, align 4
  %16 = and i32 %.val15, 32
  %.not.i16 = icmp eq i32 %16, 0
  %17 = select i1 %.not.i16, i32 2, i32 12
  %18 = shl i32 %1, %17
  %19 = getelementptr inbounds nuw i8, ptr %0, i64 3888
  %20 = sext i32 %18 to i64
  tail call void @memory_region_add_subregion_overlap(ptr noundef nonnull %19, i64 noundef %20, ptr noundef %2, i32 noundef 1) #15
  br label %23

21:                                               ; preds = %14
  %22 = getelementptr inbounds nuw i8, ptr %0, i64 3888
  tail call void @memory_region_del_subregion(ptr noundef nonnull %22, ptr noundef %2) #15
  br label %23

23:                                               ; preds = %15, %21, %4, %6, %9
  %.0 = phi i32 [ -1, %9 ], [ -1, %6 ], [ -1, %4 ], [ 0, %21 ], [ 0, %15 ]
  ret i32 %.0
}